target datalayout = "e-m:e-p270:32:32-p271:32:32-p272:64:64-i64:64-i128:128-f80:128-n8:16:32:64-S128"
target triple = "x86_64-pc-linux-gnu"

%struct._zend_executor_globals = type { %struct._zval_struct, %struct._zval_struct, [32 x ptr], ptr, ptr, %struct._zend_array, %struct._zend_array, ptr, i32, i32, ptr, ptr, ptr, ptr, ptr, ptr, i64, ptr, ptr, i32, i32, i64, i32, i32, i32, i8, i8, %struct.zend_atomic_bool_s, %struct.zend_atomic_bool_s, ptr, i64, ptr, ptr, %struct._zend_array, %struct._zend_array, i32, i8, %struct._zval_struct, %struct._zval_struct, %struct._zend_stack, %struct._zend_stack, %struct._zend_stack, ptr, i32, i32, i64, ptr, ptr, ptr, %struct._zend_objects_store, ptr, ptr, ptr, [3 x %struct._zend_op], ptr, i8, i8, i64, i32, i32, ptr, [16 x %struct._HashTableIterator], ptr, %union._zend_function, %struct._zend_op, %struct._zend_array, i64, %struct.zend_get_gc_buffer, ptr, ptr, ptr, i64, i8, i32, ptr, ptr, i64, %struct._zend_call_stack, i64, i64, [6 x ptr] }
%struct.zend_atomic_bool_s = type { i8 }
%struct._zval_struct = type { %union._zend_value, %union.anon, %union.anon.2 }
%union._zend_value = type { i64 }
%union.anon = type { i32 }
%union.anon.2 = type { i32 }
%struct._zend_stack = type { i32, i32, i32, ptr }
%struct._zend_objects_store = type { ptr, i32, i32, i32 }
%struct._HashTableIterator = type { ptr, i32, i32 }
%union._zend_function = type { %struct._zend_op_array }
%struct._zend_op_array = type { i8, [3 x i8], i32, ptr, ptr, ptr, i32, i32, ptr, ptr, ptr, ptr, i32, i32, i32, i32, ptr, ptr, ptr, ptr, ptr, i32, i32, ptr, ptr, ptr, i32, i32, i32, i32, ptr, ptr, [6 x ptr] }
%struct._zend_op = type { ptr, %union._znode_op, %union._znode_op, %union._znode_op, i32, i32, i8, i8, i8, i8 }
%union._znode_op = type { i32 }
%struct._zend_array = type { %struct._zend_refcounted_h, %union.anon.4, i32, %union.anon.6, i32, i32, i32, i32, i64, ptr }
%struct._zend_refcounted_h = type { i32, %union.anon.3 }
%union.anon.3 = type { i32 }
%union.anon.4 = type { i32 }
%union.anon.6 = type { ptr }
%struct.zend_get_gc_buffer = type { ptr, ptr, ptr }
%struct._zend_call_stack = type { ptr, i64 }
%struct._zend_execute_data = type { ptr, ptr, ptr, ptr, %struct._zval_struct, ptr, ptr, ptr, ptr }
%struct._php_stream = type { ptr, ptr, %struct._php_stream_filter_chain, %struct._php_stream_filter_chain, ptr, ptr, %struct._zval_struct, i16, [16 x i8], i32, ptr, ptr, ptr, ptr, i64, ptr, i64, i64, i64, i64, ptr }
%struct._php_stream_filter_chain = type { ptr, ptr, ptr }
%struct.anon.0 = type { i8, i8, %union.anon.1 }
%union.anon.1 = type { i16 }
%struct._php_stream_context = type { ptr, %struct._zval_struct, ptr }
%struct._zend_resource = type { %struct._zend_refcounted_h, i64, i32, ptr }
%struct._php_stream_notifier = type { ptr, ptr, %struct._zval_struct, i32, i64, i64 }

@executor_globals = external global %struct._zend_executor_globals, align 8
@.str.26 = private unnamed_addr constant [31 x i8] c"must be a valid stream/context\00", align 1
@.str.32 = private unnamed_addr constant [13 x i8] c"notification\00", align 1
@.str.33 = private unnamed_addr constant [8 x i8] c"options\00", align 1

; Function Attrs: nounwind uwtable
define internal ptr @decode_context_param(ptr noundef %0) #0 {
  %2 = alloca ptr, align 8
  %3 = alloca ptr, align 8
  %4 = alloca ptr, align 8
  store ptr %0, ptr %2, align 8
  store ptr null, ptr %3, align 8
  %5 = load ptr, ptr %2, align 8
  %6 = call i32 @php_le_stream_context()
  %7 = call ptr @zend_fetch_resource_ex(ptr noundef %5, ptr noundef null, i32 noundef %6)
  store ptr %7, ptr %3, align 8
  %8 = load ptr, ptr %3, align 8
  %9 = icmp eq ptr %8, null
  br i1 %9, label %10, label %42

10:                                               ; preds = %1
  %11 = load ptr, ptr %2, align 8
  %12 = call i32 @php_file_le_stream()
  %13 = call i32 @php_file_le_pstream()
  %14 = call ptr @zend_fetch_resource2_ex(ptr noundef %11, ptr noundef null, i32 noundef %12, i32 noundef %13)
  store ptr %14, ptr %4, align 8
  %15 = load ptr, ptr %4, align 8
  %16 = icmp ne ptr %15, null
  br i1 %16, label %17, label %41

17:                                               ; preds = %10
  %18 = load ptr, ptr %4, align 8
  %19 = getelementptr inbounds %struct._php_stream, ptr %18, i32 0, i32 13
  %20 = load ptr, ptr %19, align 8
  %21 = icmp ne ptr %20, null
  br i1 %21, label %22, label %28

22:                                               ; preds = %17
  %23 = load ptr, ptr %4, align 8
  %24 = getelementptr inbounds %struct._php_stream, ptr %23, i32 0, i32 13
  %25 = load ptr, ptr %24, align 8
  %26 = getelementptr inbounds %struct._zend_resource, ptr %25, i32 0, i32 3
  %27 = load ptr, ptr %26, align 8
  br label %29

28:                                               ; preds = %17
  br label %29

29:                                               ; preds = %28, %22
  %30 = phi ptr [ %27, %22 ], [ null, %28 ]
  store ptr %30, ptr %3, align 8
  %31 = load ptr, ptr %3, align 8
  %32 = icmp eq ptr %31, null
  br i1 %32, label %33, label %40

33:                                               ; preds = %29
  %34 = call ptr @php_stream_context_alloc()
  store ptr %34, ptr %3, align 8
  %35 = load ptr, ptr %3, align 8
  %36 = getelementptr inbounds %struct._php_stream_context, ptr %35, i32 0, i32 2
  %37 = load ptr, ptr %36, align 8
  %38 = load ptr, ptr %4, align 8
  %39 = getelementptr inbounds %struct._php_stream, ptr %38, i32 0, i32 13
  store ptr %37, ptr %39, align 8
  br label %40

40:                                               ; preds = %33, %29
  br label %41

41:                                               ; preds = %40, %10
  br label %42

42:                                               ; preds = %41, %1
  %43 = load ptr, ptr %3, align 8
  ret ptr %43
}

; Function Attrs: nounwind uwtable
define hidden void @zif_stream_context_get_params(ptr noundef %0, ptr noundef %1) #0 {
  %3 = alloca ptr, align 8
  %4 = alloca ptr, align 8
  %5 = alloca ptr, align 8
  %6 = alloca ptr, align 8
  %7 = alloca ptr, align 8
  %8 = alloca ptr, align 8
  %9 = alloca ptr, align 8
  %10 = alloca i1, align 1
  %11 = alloca ptr, align 8
  %12 = alloca ptr, align 8
  %13 = alloca i8, align 1
  %14 = alloca ptr, align 8
  %15 = alloca ptr, align 8
  %16 = alloca ptr, align 8
  %17 = alloca ptr, align 8
  %18 = alloca i32, align 4
  %19 = alloca i32, align 4
  %20 = alloca i32, align 4
  %21 = alloca i32, align 4
  %22 = alloca i32, align 4
  %23 = alloca ptr, align 8
  %24 = alloca ptr, align 8
  %25 = alloca i32, align 4
  %26 = alloca ptr, align 8
  %27 = alloca i8, align 1
  %28 = alloca i8, align 1
  %29 = alloca i32, align 4
  %30 = alloca ptr, align 8
  %31 = alloca ptr, align 8
  store ptr %0, ptr %14, align 8
  store ptr %1, ptr %15, align 8
  br label %32

32:                                               ; preds = %2
  store i32 0, ptr %18, align 4
  store i32 1, ptr %19, align 4
  store i32 1, ptr %20, align 4
  %33 = load ptr, ptr %14, align 8
  %34 = getelementptr inbounds %struct._zend_execute_data, ptr %33, i32 0, i32 4
  %35 = getelementptr inbounds %struct._zval_struct, ptr %34, i32 0, i32 2
  %36 = load i32, ptr %35, align 4
  store i32 %36, ptr %21, align 4
  store i32 0, ptr %22, align 4
  store ptr null, ptr %24, align 8
  store i32 0, ptr %25, align 4
  store ptr null, ptr %26, align 8
  store i8 0, ptr %27, align 1
  store i8 0, ptr %28, align 1
  store i32 0, ptr %29, align 4
  br label %37

37:                                               ; preds = %32
  %38 = load i32, ptr %21, align 4
  %39 = load i32, ptr %19, align 4
  %40 = icmp ult i32 %38, %39
  %41 = xor i1 %40, true
  %42 = xor i1 %41, true
  %43 = zext i1 %42 to i32
  %44 = sext i32 %43 to i64
  %45 = icmp ne i64 %44, 0
  br i1 %45, label %55, label %46

46:                                               ; preds = %37
  %47 = load i32, ptr %21, align 4
  %48 = load i32, ptr %20, align 4
  %49 = icmp ugt i32 %47, %48
  %50 = xor i1 %49, true
  %51 = xor i1 %50, true
  %52 = zext i1 %51 to i32
  %53 = sext i32 %52 to i64
  %54 = icmp ne i64 %53, 0
  br i1 %54, label %55, label %58

55:                                               ; preds = %46, %37
  %56 = load i32, ptr %19, align 4
  %57 = load i32, ptr %20, align 4
  call void @zend_wrong_parameters_count_error(i32 noundef %56, i32 noundef %57)
  store i32 1, ptr %29, align 4
  br label %142

58:                                               ; preds = %46
  %59 = load ptr, ptr %14, align 8
  %60 = getelementptr inbounds %struct._zval_struct, ptr %59, i64 4
  store ptr %60, ptr %23, align 8
  %61 = load i32, ptr %22, align 4
  %62 = add i32 %61, 1
  store i32 %62, ptr %22, align 4
  %63 = load i32, ptr %22, align 4
  %64 = load i32, ptr %19, align 4
  %65 = icmp ule i32 %63, %64
  br i1 %65, label %71, label %66

66:                                               ; preds = %58
  %67 = load i8, ptr %28, align 1
  %68 = trunc i8 %67 to i1
  %69 = zext i1 %68 to i32
  %70 = icmp eq i32 %69, 1
  br label %71

71:                                               ; preds = %66, %58
  %72 = phi i1 [ true, %58 ], [ %70, %66 ]
  call void @llvm.assume(i1 %72)
  %73 = load i32, ptr %22, align 4
  %74 = load i32, ptr %19, align 4
  %75 = icmp ugt i32 %73, %74
  br i1 %75, label %81, label %76

76:                                               ; preds = %71
  %77 = load i8, ptr %28, align 1
  %78 = trunc i8 %77 to i1
  %79 = zext i1 %78 to i32
  %80 = icmp eq i32 %79, 0
  br label %81

81:                                               ; preds = %76, %71
  %82 = phi i1 [ true, %71 ], [ %80, %76 ]
  call void @llvm.assume(i1 %82)
  %83 = load i8, ptr %28, align 1
  %84 = trunc i8 %83 to i1
  br i1 %84, label %85, label %96

85:                                               ; preds = %81
  %86 = load i32, ptr %22, align 4
  %87 = load i32, ptr %21, align 4
  %88 = icmp ugt i32 %86, %87
  %89 = xor i1 %88, true
  %90 = xor i1 %89, true
  %91 = zext i1 %90 to i32
  %92 = sext i32 %91 to i64
  %93 = icmp ne i64 %92, 0
  br i1 %93, label %94, label %95

94:                                               ; preds = %85
  br label %142

95:                                               ; preds = %85
  br label %96

96:                                               ; preds = %95, %81
  %97 = load ptr, ptr %23, align 8
  %98 = getelementptr inbounds %struct._zval_struct, ptr %97, i32 1
  store ptr %98, ptr %23, align 8
  %99 = load ptr, ptr %23, align 8
  store ptr %99, ptr %24, align 8
  %100 = load ptr, ptr %24, align 8
  store ptr %100, ptr %11, align 8
  store ptr %16, ptr %12, align 8
  store i8 0, ptr %13, align 1
  %101 = load ptr, ptr %11, align 8
  store ptr %101, ptr %8, align 8
  %102 = load ptr, ptr %8, align 8
  %103 = getelementptr inbounds %struct._zval_struct, ptr %102, i32 0, i32 1
  %104 = load i8, ptr %103, align 8
  %105 = zext i8 %104 to i32
  %106 = icmp eq i32 %105, 9
  br i1 %106, label %107, label %110

107:                                              ; preds = %96
  %108 = load ptr, ptr %11, align 8
  %109 = load ptr, ptr %12, align 8
  store ptr %108, ptr %109, align 8
  br label %123

110:                                              ; preds = %96
  %111 = load i8, ptr %13, align 1
  %112 = trunc i8 %111 to i1
  br i1 %112, label %113, label %122

113:                                              ; preds = %110
  %114 = load ptr, ptr %11, align 8
  store ptr %114, ptr %9, align 8
  %115 = load ptr, ptr %9, align 8
  %116 = getelementptr inbounds %struct._zval_struct, ptr %115, i32 0, i32 1
  %117 = load i8, ptr %116, align 8
  %118 = zext i8 %117 to i32
  %119 = icmp eq i32 %118, 1
  br i1 %119, label %120, label %122

120:                                              ; preds = %113
  %121 = load ptr, ptr %12, align 8
  store ptr null, ptr %121, align 8
  br label %123

122:                                              ; preds = %113, %110
  store i1 false, ptr %10, align 1
  br label %124

123:                                              ; preds = %120, %107
  store i1 true, ptr %10, align 1
  br label %124

124:                                              ; preds = %123, %122
  %125 = load i1, ptr %10, align 1
  %126 = xor i1 %125, true
  %127 = xor i1 %126, true
  %128 = xor i1 %127, true
  %129 = zext i1 %128 to i32
  %130 = sext i32 %129 to i64
  %131 = icmp ne i64 %130, 0
  br i1 %131, label %132, label %133

132:                                              ; preds = %124
  store i32 14, ptr %25, align 4
  store i32 9, ptr %29, align 4
  br label %142

133:                                              ; preds = %124
  %134 = load i32, ptr %22, align 4
  %135 = load i32, ptr %20, align 4
  %136 = icmp eq i32 %134, %135
  br i1 %136, label %140, label %137

137:                                              ; preds = %133
  %138 = load i32, ptr %20, align 4
  %139 = icmp eq i32 %138, -1
  br label %140

140:                                              ; preds = %137, %133
  %141 = phi i1 [ true, %133 ], [ %139, %137 ]
  call void @llvm.assume(i1 %141)
  br label %142

142:                                              ; preds = %140, %132, %94, %55
  %143 = load i32, ptr %29, align 4
  %144 = icmp ne i32 %143, 0
  %145 = xor i1 %144, true
  %146 = xor i1 %145, true
  %147 = zext i1 %146 to i32
  %148 = sext i32 %147 to i64
  %149 = icmp ne i64 %148, 0
  br i1 %149, label %150, label %156

150:                                              ; preds = %142
  %151 = load i32, ptr %29, align 4
  %152 = load i32, ptr %22, align 4
  %153 = load ptr, ptr %26, align 8
  %154 = load i32, ptr %25, align 4
  %155 = load ptr, ptr %24, align 8
  call void @zend_wrong_parameter_error(i32 noundef %151, i32 noundef %152, ptr noundef %153, i32 noundef %154, ptr noundef %155)
  br label %260

156:                                              ; preds = %142
  br label %157

157:                                              ; preds = %156
  %158 = load ptr, ptr %16, align 8
  %159 = call ptr @decode_context_param(ptr noundef %158)
  store ptr %159, ptr %17, align 8
  %160 = load ptr, ptr %17, align 8
  %161 = icmp ne ptr %160, null
  br i1 %161, label %167, label %162

162:                                              ; preds = %157
  call void (i32, ptr, ...) @zend_argument_type_error(i32 noundef 1, ptr noundef @.str.26)
  br label %163

163:                                              ; preds = %162
  %164 = load ptr, ptr getelementptr inbounds (%struct._zend_executor_globals, ptr @executor_globals, i32 0, i32 50), align 8
  %165 = icmp ne ptr %164, null
  call void @llvm.assume(i1 %165)
  br label %260

166:                                              ; No predecessors!
  br label %167

167:                                              ; preds = %166, %157
  br label %168

168:                                              ; preds = %167
  %169 = call ptr @_zend_new_array_0()
  store ptr %169, ptr %30, align 8
  %170 = load ptr, ptr %15, align 8
  store ptr %170, ptr %31, align 8
  %171 = load ptr, ptr %30, align 8
  %172 = load ptr, ptr %31, align 8
  %173 = getelementptr inbounds %struct._zval_struct, ptr %172, i32 0, i32 0
  store ptr %171, ptr %173, align 8
  %174 = load ptr, ptr %31, align 8
  %175 = getelementptr inbounds %struct._zval_struct, ptr %174, i32 0, i32 1
  store i32 775, ptr %175, align 8
  br label %176

176:                                              ; preds = %168
  %177 = load ptr, ptr %17, align 8
  %178 = getelementptr inbounds %struct._php_stream_context, ptr %177, i32 0, i32 0
  %179 = load ptr, ptr %178, align 8
  %180 = icmp ne ptr %179, null
  br i1 %180, label %181, label %232

181:                                              ; preds = %176
  %182 = load ptr, ptr %17, align 8
  %183 = getelementptr inbounds %struct._php_stream_context, ptr %182, i32 0, i32 0
  %184 = load ptr, ptr %183, align 8
  %185 = getelementptr inbounds %struct._php_stream_notifier, ptr %184, i32 0, i32 2
  store ptr %185, ptr %7, align 8
  %186 = load ptr, ptr %7, align 8
  %187 = getelementptr inbounds %struct._zval_struct, ptr %186, i32 0, i32 1
  %188 = load i8, ptr %187, align 8
  %189 = zext i8 %188 to i32
  %190 = icmp ne i32 %189, 0
  br i1 %190, label %191, label %232

191:                                              ; preds = %181
  %192 = load ptr, ptr %17, align 8
  %193 = getelementptr inbounds %struct._php_stream_context, ptr %192, i32 0, i32 0
  %194 = load ptr, ptr %193, align 8
  %195 = getelementptr inbounds %struct._php_stream_notifier, ptr %194, i32 0, i32 0
  %196 = load ptr, ptr %195, align 8
  %197 = icmp eq ptr %196, @user_space_stream_notifier
  br i1 %197, label %198, label %232

198:                                              ; preds = %191
  br label %199

199:                                              ; preds = %198
  %200 = load ptr, ptr %17, align 8
  %201 = getelementptr inbounds %struct._php_stream_context, ptr %200, i32 0, i32 0
  %202 = load ptr, ptr %201, align 8
  %203 = getelementptr inbounds %struct._php_stream_notifier, ptr %202, i32 0, i32 2
  %204 = getelementptr inbounds %struct._zval_struct, ptr %203, i32 0, i32 1
  %205 = getelementptr inbounds %struct.anon.0, ptr %204, i32 0, i32 1
  %206 = load i8, ptr %205, align 1
  %207 = zext i8 %206 to i32
  %208 = icmp ne i32 %207, 0
  br i1 %208, label %209, label %225

209:                                              ; preds = %199
  %210 = load ptr, ptr %17, align 8
  %211 = getelementptr inbounds %struct._php_stream_context, ptr %210, i32 0, i32 0
  %212 = load ptr, ptr %211, align 8
  %213 = getelementptr inbounds %struct._php_stream_notifier, ptr %212, i32 0, i32 2
  store ptr %213, ptr %5, align 8
  %214 = load ptr, ptr %5, align 8
  %215 = getelementptr inbounds %struct._zval_struct, ptr %214, i32 0, i32 1
  %216 = getelementptr inbounds %struct.anon.0, ptr %215, i32 0, i32 1
  %217 = load i8, ptr %216, align 1
  %218 = zext i8 %217 to i32
  %219 = icmp ne i32 %218, 0
  call void @llvm.assume(i1 %219)
  %220 = load ptr, ptr %5, align 8
  %221 = load ptr, ptr %220, align 8
  store ptr %221, ptr %4, align 8
  %222 = load ptr, ptr %4, align 8
  %223 = load i32, ptr %222, align 4
  %224 = add i32 %223, 1
  store i32 %224, ptr %222, align 4
  br label %225

225:                                              ; preds = %209, %199
  br label %226

226:                                              ; preds = %225
  %227 = load ptr, ptr %15, align 8
  %228 = load ptr, ptr %17, align 8
  %229 = getelementptr inbounds %struct._php_stream_context, ptr %228, i32 0, i32 0
  %230 = load ptr, ptr %229, align 8
  %231 = getelementptr inbounds %struct._php_stream_notifier, ptr %230, i32 0, i32 2
  call void @add_assoc_zval_ex(ptr noundef %227, ptr noundef @.str.32, i64 noundef 12, ptr noundef %231)
  br label %232

232:                                              ; preds = %226, %191, %181, %176
  br label %233

233:                                              ; preds = %232
  %234 = load ptr, ptr %17, align 8
  %235 = getelementptr inbounds %struct._php_stream_context, ptr %234, i32 0, i32 1
  %236 = getelementptr inbounds %struct._zval_struct, ptr %235, i32 0, i32 1
  %237 = getelementptr inbounds %struct.anon.0, ptr %236, i32 0, i32 1
  %238 = load i8, ptr %237, align 1
  %239 = zext i8 %238 to i32
  %240 = icmp ne i32 %239, 0
  br i1 %240, label %241, label %255

241:                                              ; preds = %233
  %242 = load ptr, ptr %17, align 8
  %243 = getelementptr inbounds %struct._php_stream_context, ptr %242, i32 0, i32 1
  store ptr %243, ptr %6, align 8
  %244 = load ptr, ptr %6, align 8
  %245 = getelementptr inbounds %struct._zval_struct, ptr %244, i32 0, i32 1
  %246 = getelementptr inbounds %struct.anon.0, ptr %245, i32 0, i32 1
  %247 = load i8, ptr %246, align 1
  %248 = zext i8 %247 to i32
  %249 = icmp ne i32 %248, 0
  call void @llvm.assume(i1 %249)
  %250 = load ptr, ptr %6, align 8
  %251 = load ptr, ptr %250, align 8
  store ptr %251, ptr %3, align 8
  %252 = load ptr, ptr %3, align 8
  %253 = load i32, ptr %252, align 4
  %254 = add i32 %253, 1
  store i32 %254, ptr %252, align 4
  br label %255

255:                                              ; preds = %241, %233
  br label %256

256:                                              ; preds = %255
  %257 = load ptr, ptr %15, align 8
  %258 = load ptr, ptr %17, align 8
  %259 = getelementptr inbounds %struct._php_stream_context, ptr %258, i32 0, i32 1
  call void @add_assoc_zval_ex(ptr noundef %257, ptr noundef @.str.33, i64 noundef 7, ptr noundef %259)
  br label %260

260:                                              ; preds = %256, %163, %150
  ret void
}